target datalayout = "e-m:e-p270:32:32-p271:32:32-p272:64:64-i64:64-i128:128-f80:128-n8:16:32:64-S128"
target triple = "x86_64-pc-linux-gnu"

%struct._lv_label_t = type { %struct._lv_obj_t, ptr, [4 x i8], i32, %struct._lv_draw_label_hint_t, i32, i32, %struct.lv_point_t, %struct.lv_point_t, i8 }
%struct._lv_obj_t = type { ptr, ptr, ptr, ptr, ptr, %struct.lv_area_t, i32, i16, i16 }
%struct.lv_area_t = type { i32, i32, i32, i32 }
%struct._lv_draw_label_hint_t = type { i32, i32, i32 }
%struct.lv_point_t = type { i32, i32 }

; Function Attrs: nounwind uwtable
define internal void @lv_label_set_dots(ptr noundef %0, i32 noundef %1) #0 {
  %3 = alloca ptr, align 8
  %4 = alloca i32, align 4
  %5 = alloca ptr, align 8
  %6 = alloca i32, align 4
  store ptr %0, ptr %3, align 8, !tbaa !3
  store i32 %1, ptr %4, align 4, !tbaa !21
  call void @llvm.lifetime.start.p0(i64 8, ptr %5) #6
  %7 = load ptr, ptr %3, align 8, !tbaa !3
  store ptr %7, ptr %5, align 8, !tbaa !3
  br label %8

8:                                                ; preds = %2
  %9 = load ptr, ptr %5, align 8, !tbaa !3
  %10 = getelementptr inbounds nuw %struct._lv_label_t, ptr %9, i32 0, i32 3
  %11 = load i32, ptr %10, align 4, !tbaa !15
  %12 = icmp eq i32 %11, -1
  br i1 %12, label %19, label %13

13:                                               ; preds = %8
  br label %14

14:                                               ; preds = %13
  br label %15

15:                                               ; preds = %14
  br label %16

16:                                               ; preds = %15
  br label %17

17:                                               ; preds = %18, %16
  br label %18

18:                                               ; preds = %17
  br label %17

19:                                               ; preds = %8
  br label %20

20:                                               ; preds = %19
  br label %21

21:                                               ; preds = %20
  %22 = load i32, ptr %4, align 4, !tbaa !21
  %23 = icmp ne i32 %22, -1
  br i1 %23, label %24, label %76

24:                                               ; preds = %21
  %25 = load ptr, ptr %5, align 8, !tbaa !3
  %26 = getelementptr inbounds nuw %struct._lv_label_t, ptr %25, i32 0, i32 2
  %27 = getelementptr inbounds [4 x i8], ptr %26, i64 0, i64 0
  %28 = load ptr, ptr %5, align 8, !tbaa !3
  %29 = getelementptr inbounds nuw %struct._lv_label_t, ptr %28, i32 0, i32 1
  %30 = load ptr, ptr %29, align 8, !tbaa !7
  %31 = load i32, ptr %4, align 4, !tbaa !21
  %32 = zext i32 %31 to i64
  %33 = getelementptr inbounds nuw i8, ptr %30, i64 %32
  %34 = call ptr @lv_strncpy(ptr noundef %27, ptr noundef %33, i64 noundef 4)
  %35 = load i32, ptr %4, align 4, !tbaa !21
  %36 = load ptr, ptr %5, align 8, !tbaa !3
  %37 = getelementptr inbounds nuw %struct._lv_label_t, ptr %36, i32 0, i32 3
  store i32 %35, ptr %37, align 4, !tbaa !15
  call void @llvm.lifetime.start.p0(i64 4, ptr %6) #6
  store i32 0, ptr %6, align 4, !tbaa !21
  br label %38

38:                                               ; preds = %64, %24
  %39 = load i32, ptr %6, align 4, !tbaa !21
  %40 = icmp slt i32 %39, 3
  br i1 %40, label %41, label %53

41:                                               ; preds = %38
  %42 = load ptr, ptr %5, align 8, !tbaa !3
  %43 = getelementptr inbounds nuw %struct._lv_label_t, ptr %42, i32 0, i32 1
  %44 = load ptr, ptr %43, align 8, !tbaa !7
  %45 = load i32, ptr %4, align 4, !tbaa !21
  %46 = load i32, ptr %6, align 4, !tbaa !21
  %47 = add i32 %45, %46
  %48 = zext i32 %47 to i64
  %49 = getelementptr inbounds nuw i8, ptr %44, i64 %48
  %50 = load i8, ptr %49, align 1, !tbaa !28
  %51 = sext i8 %50 to i32
  %52 = icmp ne i32 %51, 0
  br label %53

53:                                               ; preds = %41, %38
  %54 = phi i1 [ false, %38 ], [ %52, %41 ]
  br i1 %54, label %55, label %67

55:                                               ; preds = %53
  %56 = load ptr, ptr %5, align 8, !tbaa !3
  %57 = getelementptr inbounds nuw %struct._lv_label_t, ptr %56, i32 0, i32 1
  %58 = load ptr, ptr %57, align 8, !tbaa !7
  %59 = load i32, ptr %4, align 4, !tbaa !21
  %60 = load i32, ptr %6, align 4, !tbaa !21
  %61 = add i32 %59, %60
  %62 = zext i32 %61 to i64
  %63 = getelementptr inbounds nuw i8, ptr %58, i64 %62
  store i8 46, ptr %63, align 1, !tbaa !28
  br label %64

64:                                               ; preds = %55
  %65 = load i32, ptr %6, align 4, !tbaa !21
  %66 = add nsw i32 %65, 1
  store i32 %66, ptr %6, align 4, !tbaa !21
  br label %38, !llvm.loop !49

67:                                               ; preds = %53
  %68 = load ptr, ptr %5, align 8, !tbaa !3
  %69 = getelementptr inbounds nuw %struct._lv_label_t, ptr %68, i32 0, i32 1
  %70 = load ptr, ptr %69, align 8, !tbaa !7
  %71 = load i32, ptr %4, align 4, !tbaa !21
  %72 = load i32, ptr %6, align 4, !tbaa !21
  %73 = add i32 %71, %72
  %74 = zext i32 %73 to i64
  %75 = getelementptr inbounds nuw i8, ptr %70, i64 %74
  store i8 0, ptr %75, align 1, !tbaa !28
  call void @llvm.lifetime.end.p0(i64 4, ptr %6) #6
  br label %76

76:                                               ; preds = %67, %21
  call void @llvm.lifetime.end.p0(i64 8, ptr %5) #6
  ret void
}