; Function Attrs: nounwind uwtable
define internal fastcc void @lv_label_set_dots(ptr noundef %0, i32 noundef %1) unnamed_addr #0 {
  %3 = getelementptr inbounds nuw i8, ptr %0, i64 76
  %4 = load i32, ptr %3, align 4, !tbaa !14
  %5 = icmp eq i32 %4, -1
  br i1 %5, label %6, label %.preheader

.preheader:                                       ; preds = %2, %.preheader
  br label %.preheader

6:                                                ; preds = %2
  %.not = icmp eq i32 %1, -1
  br i1 %.not, label %26, label %7

7:                                                ; preds = %6
  %8 = getelementptr inbounds nuw i8, ptr %0, i64 72
  %9 = getelementptr inbounds nuw i8, ptr %0, i64 64
  %10 = load ptr, ptr %9, align 8, !tbaa !3
  %11 = zext i32 %1 to i64
  %12 = getelementptr inbounds nuw i8, ptr %10, i64 %11
  %13 = tail call ptr @lv_strncpy(ptr noundef nonnull %8, ptr noundef %12, i64 noundef 4) #7
  store i32 %1, ptr %3, align 4, !tbaa !14
  br label %14

14:                                               ; preds = %7, %21
  %indvars.iv = phi i64 [ 0, %7 ], [ %indvars.iv.next, %21 ]
  %15 = load ptr, ptr %9, align 8, !tbaa !3
  %16 = trunc nuw nsw i64 %indvars.iv to i32
  %17 = add i32 %1, %16
  %18 = zext i32 %17 to i64
  %19 = getelementptr inbounds nuw i8, ptr %15, i64 %18
  %20 = load i8, ptr %19, align 1, !tbaa !20
  %.not19 = icmp eq i8 %20, 0
  br i1 %.not19, label %.critedge, label %21

21:                                               ; preds = %14
  store i8 46, ptr %19, align 1, !tbaa !20
  %indvars.iv.next = add nuw nsw i64 %indvars.iv, 1
  %exitcond.not = icmp eq i64 %indvars.iv.next, 3
  br i1 %exitcond.not, label %..critedge_crit_edge, label %14, !llvm.loop !23

..critedge_crit_edge:                             ; preds = %21
  %.pre = load ptr, ptr %9, align 8, !tbaa !3
  br label %.critedge

.critedge:                                        ; preds = %14, %..critedge_crit_edge
  %22 = phi ptr [ %.pre, %..critedge_crit_edge ], [ %15, %14 ]
  %.0.lcssa = phi i32 [ 3, %..critedge_crit_edge ], [ %16, %14 ]
  %23 = add i32 %.0.lcssa, %1
  %24 = zext i32 %23 to i64
  %25 = getelementptr inbounds nuw i8, ptr %22, i64 %24
  store i8 0, ptr %25, align 1, !tbaa !20
  br label %26

26:                                               ; preds = %.critedge, %6
  ret void
}